target datalayout = "e-m:e-p270:32:32-p271:32:32-p272:64:64-i64:64-i128:128-f80:128-n8:16:32:64-S128"
target triple = "x86_64-pc-linux-gnu"

%"class.gmx::AbstractAnalysisData::Impl" = type { %"class.std::vector", i8, %"class.gmx::AnalysisDataModuleManager" }
%"class.std::vector" = type { %"struct.std::_Vector_base" }
%"struct.std::_Vector_base" = type { %"struct.std::_Vector_base<int, std::allocator<int>>::_Vector_impl" }
%"struct.std::_Vector_base<int, std::allocator<int>>::_Vector_impl" = type { %"struct.std::_Vector_base<int, std::allocator<int>>::_Vector_impl_data" }
%"struct.std::_Vector_base<int, std::allocator<int>>::_Vector_impl_data" = type { ptr, ptr, ptr }
%"class.gmx::AnalysisDataModuleManager" = type { %"class.std::unique_ptr" }
%"class.std::unique_ptr" = type { %"struct.std::__uniq_ptr_data" }
%"struct.std::__uniq_ptr_data" = type { %"class.std::__uniq_ptr_impl" }
%"class.std::__uniq_ptr_impl" = type { %"class.std::tuple" }
%"class.std::tuple" = type { %"struct.std::_Tuple_impl" }
%"struct.std::_Tuple_impl" = type { %"struct.std::_Head_base.1" }
%"struct.std::_Head_base.1" = type { ptr }
%"class.gmx::AbstractAnalysisData" = type { ptr, %"class.std::unique_ptr.2" }
%"class.std::unique_ptr.2" = type { %"struct.std::__uniq_ptr_data.3" }
%"struct.std::__uniq_ptr_data.3" = type { %"class.std::__uniq_ptr_impl.4" }
%"class.std::__uniq_ptr_impl.4" = type { %"class.std::tuple.5" }
%"class.std::tuple.5" = type { %"struct.std::_Tuple_impl.6" }
%"struct.std::_Tuple_impl.6" = type { %"struct.std::_Head_base.9" }
%"struct.std::_Head_base.9" = type { ptr }

; Function Attrs: mustprogress nounwind uwtable
define linkonce_odr noundef nonnull align 8 dereferenceable(8) ptr @_ZNSt10_Head_baseILm0EPN3gmx20AbstractAnalysisData4ImplELb0EE7_M_headERKS4_(ptr noundef nonnull align 8 dereferenceable(8) %0) #0 comdat align 2 {
  %2 = alloca ptr, align 8
  store ptr %0, ptr %2, align 8, !tbaa !73
  %3 = load ptr, ptr %2, align 8, !tbaa !73
  %4 = getelementptr inbounds nuw %"struct.std::_Head_base.9", ptr %3, i32 0, i32 0
  ret ptr %4
}

; Function Attrs: mustprogress nounwind uwtable
define linkonce_odr noundef nonnull align 8 dereferenceable(8) ptr @_ZNSt11_Tuple_implILm0EJPN3gmx20AbstractAnalysisData4ImplESt14default_deleteIS2_EEE7_M_headERKS6_(ptr noundef nonnull align 8 dereferenceable(8) %0) #0 comdat align 2 {
  %2 = alloca ptr, align 8
  store ptr %0, ptr %2, align 8, !tbaa !69
  %3 = load ptr, ptr %2, align 8, !tbaa !69
  %4 = call noundef nonnull align 8 dereferenceable(8) ptr @_ZNSt10_Head_baseILm0EPN3gmx20AbstractAnalysisData4ImplELb0EE7_M_headERKS4_(ptr noundef nonnull align 8 dereferenceable(8) %3) #18
  ret ptr %4
}

; Function Attrs: mustprogress nounwind uwtable
define linkonce_odr noundef nonnull align 8 dereferenceable(8) ptr @_ZSt12__get_helperILm0EPN3gmx20AbstractAnalysisData4ImplEJSt14default_deleteIS2_EEERKT0_RKSt11_Tuple_implIXT_EJS6_DpT1_EE(ptr noundef nonnull align 8 dereferenceable(8) %0) #0 comdat {
  %2 = alloca ptr, align 8
  store ptr %0, ptr %2, align 8, !tbaa !69
  %3 = load ptr, ptr %2, align 8, !tbaa !69
  %4 = call noundef nonnull align 8 dereferenceable(8) ptr @_ZNSt11_Tuple_implILm0EJPN3gmx20AbstractAnalysisData4ImplESt14default_deleteIS2_EEE7_M_headERKS6_(ptr noundef nonnull align 8 dereferenceable(8) %3) #18
  ret ptr %4
}

; Function Attrs: mustprogress nounwind uwtable
define linkonce_odr noundef nonnull align 8 dereferenceable(8) ptr @_ZSt3getILm0EJPN3gmx20AbstractAnalysisData4ImplESt14default_deleteIS2_EEERKNSt13tuple_elementIXT_ESt5tupleIJDpT0_EEE4typeERKSA_(ptr noundef nonnull align 8 dereferenceable(8) %0) #0 comdat {
  %2 = alloca ptr, align 8
  store ptr %0, ptr %2, align 8, !tbaa !67
  %3 = load ptr, ptr %2, align 8, !tbaa !67
  %4 = call noundef nonnull align 8 dereferenceable(8) ptr @_ZSt12__get_helperILm0EPN3gmx20AbstractAnalysisData4ImplEJSt14default_deleteIS2_EEERKT0_RKSt11_Tuple_implIXT_EJS6_DpT1_EE(ptr noundef nonnull align 8 dereferenceable(8) %3) #18
  ret ptr %4
}

; Function Attrs: mustprogress nounwind uwtable
define linkonce_odr noundef ptr @_ZNKSt15__uniq_ptr_implIN3gmx20AbstractAnalysisData4ImplESt14default_deleteIS2_EE6_M_ptrEv(ptr noundef nonnull align 8 dereferenceable(8) %0) #0 comdat align 2 {
  %2 = alloca ptr, align 8
  store ptr %0, ptr %2, align 8, !tbaa !65
  %3 = load ptr, ptr %2, align 8
  %4 = getelementptr inbounds nuw %"class.std::__uniq_ptr_impl.4", ptr %3, i32 0, i32 0
  %5 = call noundef nonnull align 8 dereferenceable(8) ptr @_ZSt3getILm0EJPN3gmx20AbstractAnalysisData4ImplESt14default_deleteIS2_EEERKNSt13tuple_elementIXT_ESt5tupleIJDpT0_EEE4typeERKSA_(ptr noundef nonnull align 8 dereferenceable(8) %4) #18
  %6 = load ptr, ptr %5, align 8, !tbaa !9
  ret ptr %6
}

; Function Attrs: mustprogress nounwind uwtable
define linkonce_odr noundef ptr @_ZNKSt10unique_ptrIN3gmx20AbstractAnalysisData4ImplESt14default_deleteIS2_EE3getEv(ptr noundef nonnull align 8 dereferenceable(8) %0) #0 comdat align 2 {
  %2 = alloca ptr, align 8
  store ptr %0, ptr %2, align 8, !tbaa !61
  %3 = load ptr, ptr %2, align 8
  %4 = getelementptr inbounds nuw %"class.std::unique_ptr.2", ptr %3, i32 0, i32 0
  %5 = call noundef ptr @_ZNKSt15__uniq_ptr_implIN3gmx20AbstractAnalysisData4ImplESt14default_deleteIS2_EE6_M_ptrEv(ptr noundef nonnull align 8 dereferenceable(8) %4) #18
  ret ptr %5
}

; Function Attrs: mustprogress nounwind uwtable
define linkonce_odr noundef ptr @_ZNKSt10unique_ptrIN3gmx20AbstractAnalysisData4ImplESt14default_deleteIS2_EEptEv(ptr noundef nonnull align 8 dereferenceable(8) %0) #0 comdat align 2 {
  %2 = alloca ptr, align 8
  store ptr %0, ptr %2, align 8, !tbaa !61
  %3 = load ptr, ptr %2, align 8
  %4 = call noundef ptr @_ZNKSt10unique_ptrIN3gmx20AbstractAnalysisData4ImplESt14default_deleteIS2_EE3getEv(ptr noundef nonnull align 8 dereferenceable(8) %3) #18
  ret ptr %4
}

; Function Attrs: mustprogress uwtable
define void @_ZN3gmx20AbstractAnalysisData13setMultipointEb(ptr noundef nonnull align 8 dereferenceable(16) %0, i1 noundef zeroext %1) #1 align 2 {
  %3 = alloca ptr, align 8
  %4 = alloca i8, align 1
  store ptr %0, ptr %3, align 8, !tbaa !4
  %5 = zext i1 %1 to i8
  store i8 %5, ptr %4, align 1, !tbaa !189
  %6 = load ptr, ptr %3, align 8
  %7 = getelementptr inbounds nuw %"class.gmx::AbstractAnalysisData", ptr %6, i32 0, i32 1
  %8 = call noundef ptr @_ZNKSt10unique_ptrIN3gmx20AbstractAnalysisData4ImplESt14default_deleteIS2_EEptEv(ptr noundef nonnull align 8 dereferenceable(8) %7) #18
  %9 = getelementptr inbounds nuw %"class.gmx::AbstractAnalysisData::Impl", ptr %8, i32 0, i32 2
  %10 = load i8, ptr %4, align 1, !tbaa !189, !range !83, !noundef !84
  %11 = trunc i8 %10 to i1
  call void @_ZN3gmx25AnalysisDataModuleManager25dataPropertyAboutToChangeENS0_12DataPropertyEb(ptr noundef nonnull align 8 dereferenceable(8) %9, i32 noundef 2, i1 noundef zeroext %11)
  %12 = load i8, ptr %4, align 1, !tbaa !189, !range !83, !noundef !84
  %13 = trunc i8 %12 to i1
  %14 = getelementptr inbounds nuw %"class.gmx::AbstractAnalysisData", ptr %6, i32 0, i32 1
  %15 = call noundef ptr @_ZNKSt10unique_ptrIN3gmx20AbstractAnalysisData4ImplESt14default_deleteIS2_EEptEv(ptr noundef nonnull align 8 dereferenceable(8) %14) #18
  %16 = getelementptr inbounds nuw %"class.gmx::AbstractAnalysisData::Impl", ptr %15, i32 0, i32 1
  %17 = zext i1 %13 to i8
  store i8 %17, ptr %16, align 8, !tbaa !11
  ret void
}