; Function Attrs: mustprogress uwtable
define void @_ZN3gmx20AbstractAnalysisData13setMultipointEb(ptr noundef nonnull readonly align 8 captures(none) dereferenceable(16) %0, i1 noundef zeroext %1) local_unnamed_addr #1 align 2 {
  %3 = zext i1 %1 to i8
  %4 = getelementptr inbounds nuw i8, ptr %0, i64 8
  %5 = load ptr, ptr %4, align 8, !tbaa !16
  %6 = getelementptr inbounds nuw i8, ptr %5, i64 32
  tail call void @_ZN3gmx25AnalysisDataModuleManager25dataPropertyAboutToChangeENS0_12DataPropertyEb(ptr noundef nonnull align 8 dereferenceable(8) %6, i32 noundef 2, i1 noundef zeroext %1)
  %7 = load ptr, ptr %4, align 8, !tbaa !16
  %8 = getelementptr inbounds nuw i8, ptr %7, i64 24
  store i8 %3, ptr %8, align 8, !tbaa !18
  ret void
}